; Function Attrs: mustprogress nofree norecurse nosync nounwind willreturn memory(argmem: read) uwtable
define hidden ptr @b2GetJointFullId(ptr noundef readonly captures(none) %0, i64 %1) local_unnamed_addr #6 {
  %3 = getelementptr inbounds nuw i8, ptr %0, i64 1112
  %.val = load ptr, ptr %3, align 8, !tbaa !10
  %4 = shl i64 %1, 32
  %sext = add i64 %4, -4294967296
  %5 = ashr exact i64 %sext, 32
  %6 = getelementptr inbounds %struct.b2Joint, ptr %.val, i64 %5
  ret ptr %6
}